; Function Attrs: mustprogress nofree norecurse nosync nounwind willreturn memory(argmem: readwrite) uwtable
define void @fstReaderSetUnlimitedTimeRange(ptr noundef captures(address_is_null) %0) local_unnamed_addr #11 {
  %.not = icmp eq ptr %0, null
  br i1 %.not, label %6, label %2

2:                                                ; preds = %1
  %3 = getelementptr inbounds nuw i8, ptr %0, i64 122
  %4 = load i8, ptr %3, align 2
  %5 = and i8 %4, 127
  store i8 %5, ptr %3, align 2
  br label %6

6:                                                ; preds = %2, %1
  ret void
}